target datalayout = "e-m:e-p270:32:32-p271:32:32-p272:64:64-i64:64-i128:128-f80:128-n8:16:32:64-S128"
target triple = "x86_64-pc-linux-gnu"

%"class.folly::IPAddressV6" = type <{ %"union.folly::IPAddressV6::AddressStorage", i16, [2 x i8] }>
%"union.folly::IPAddressV6::AddressStorage" = type { %struct.in6_addr }
%struct.in6_addr = type { %union.anon }
%union.anon = type { [4 x i32] }

; Function Attrs: inlinehint mustprogress nounwind uwtable
define internal noundef zeroext i16 @_ZN5follyL6unpackEhh(i8 noundef zeroext %0, i8 noundef zeroext %1) #8 {
  %3 = alloca i8, align 1
  %4 = alloca i8, align 1
  store i8 %0, ptr %3, align 1, !tbaa !22
  store i8 %1, ptr %4, align 1, !tbaa !22
  %5 = load i8, ptr %4, align 1, !tbaa !22
  %6 = zext i8 %5 to i16
  %7 = zext i16 %6 to i32
  %8 = shl i32 %7, 8
  %9 = load i8, ptr %3, align 1, !tbaa !22
  %10 = zext i8 %9 to i32
  %11 = or i32 %8, %10
  %12 = trunc i32 %11 to i16
  ret i16 %12
}

; Function Attrs: inlinehint mustprogress uwtable
define internal void @_ZN5follyL10unpackIntoEPKhPtm(ptr noundef %0, ptr noundef %1, i64 noundef %2) #1 {
  %4 = alloca ptr, align 8
  %5 = alloca ptr, align 8
  %6 = alloca i64, align 8
  %7 = alloca i64, align 8
  %8 = alloca i64, align 8
  %9 = alloca i64, align 8
  store ptr %0, ptr %4, align 8, !tbaa !28
  store ptr %1, ptr %5, align 8, !tbaa !411
  store i64 %2, ptr %6, align 8, !tbaa !12
  call void @llvm.lifetime.start.p0(i64 8, ptr %7) #13
  store i64 0, ptr %7, align 8, !tbaa !12
  call void @llvm.lifetime.start.p0(i64 8, ptr %8) #13
  store i64 1, ptr %8, align 8, !tbaa !12
  call void @llvm.lifetime.start.p0(i64 8, ptr %9) #13
  store i64 0, ptr %9, align 8, !tbaa !12
  br label %10

10:                                               ; preds = %32, %3
  %11 = load i64, ptr %7, align 8, !tbaa !12
  %12 = load i64, ptr %6, align 8, !tbaa !12
  %13 = icmp ult i64 %11, %12
  br i1 %13, label %15, label %14

14:                                               ; preds = %10
  call void @llvm.lifetime.end.p0(i64 8, ptr %9) #13
  call void @llvm.lifetime.end.p0(i64 8, ptr %8) #13
  call void @llvm.lifetime.end.p0(i64 8, ptr %7) #13
  br label %35

15:                                               ; preds = %10
  %16 = load ptr, ptr %4, align 8, !tbaa !28
  %17 = load i64, ptr %8, align 8, !tbaa !12
  %18 = getelementptr inbounds nuw i8, ptr %16, i64 %17
  %19 = load i8, ptr %18, align 1, !tbaa !22
  %20 = load ptr, ptr %4, align 8, !tbaa !28
  %21 = load i64, ptr %9, align 8, !tbaa !12
  %22 = getelementptr inbounds nuw i8, ptr %20, i64 %21
  %23 = load i8, ptr %22, align 1, !tbaa !22
  %24 = call noundef zeroext i16 @_ZN5follyL6unpackEhh(i8 noundef zeroext %19, i8 noundef zeroext %23)
  %25 = load ptr, ptr %5, align 8, !tbaa !411
  %26 = load i64, ptr %7, align 8, !tbaa !12
  %27 = getelementptr inbounds nuw i16, ptr %25, i64 %26
  store i16 %24, ptr %27, align 2, !tbaa !20
  %28 = load i64, ptr %8, align 8, !tbaa !12
  %29 = add i64 %28, 2
  store i64 %29, ptr %8, align 8, !tbaa !12
  %30 = load i64, ptr %9, align 8, !tbaa !12
  %31 = add i64 %30, 2
  store i64 %31, ptr %9, align 8, !tbaa !12
  br label %32

32:                                               ; preds = %15
  %33 = load i64, ptr %7, align 8, !tbaa !12
  %34 = add i64 %33, 1
  store i64 %34, ptr %7, align 8, !tbaa !12
  br label %10, !llvm.loop !413

35:                                               ; preds = %14
  ret void
}

; Function Attrs: mustprogress nounwind uwtable
define linkonce_odr noundef ptr @_ZNK5folly11IPAddressV65bytesEv(ptr noundef nonnull align 4 dereferenceable(18) %0) #3 comdat align 2 {
  %2 = alloca ptr, align 8
  store ptr %0, ptr %2, align 8, !tbaa !7
  %3 = load ptr, ptr %2, align 8
  %4 = getelementptr inbounds nuw %"class.folly::IPAddressV6", ptr %3, i32 0, i32 0
  %5 = getelementptr inbounds nuw %struct.in6_addr, ptr %4, i32 0, i32 0
  %6 = getelementptr inbounds [16 x i8], ptr %5, i64 0, i64 0
  ret ptr %6
}

; Function Attrs: mustprogress uwtable
define noundef i32 @_ZNK5folly11IPAddressV64typeEv(ptr noundef nonnull align 4 dereferenceable(18) %0) #0 align 2 {
  %2 = alloca i32, align 4
  %3 = alloca ptr, align 8
  %4 = alloca [2 x i16], align 2
  %5 = alloca i32, align 4
  store ptr %0, ptr %3, align 8, !tbaa !7
  %6 = load ptr, ptr %3, align 8
  call void @llvm.lifetime.start.p0(i64 4, ptr %4) #13
  call void @llvm.memset.p0.i64(ptr align 2 %4, i8 0, i64 4, i1 false)
  %7 = call noundef ptr @_ZNK5folly11IPAddressV65bytesEv(ptr noundef nonnull align 4 dereferenceable(18) %6)
  %8 = getelementptr inbounds [2 x i16], ptr %4, i64 0, i64 0
  call void @_ZN5follyL10unpackIntoEPKhPtm(ptr noundef %7, ptr noundef %8, i64 noundef 2)
  %9 = getelementptr inbounds [2 x i16], ptr %4, i64 0, i64 0
  %10 = load i16, ptr %9, align 2, !tbaa !20
  %11 = zext i16 %10 to i32
  %12 = shl i32 %11, 16
  %13 = getelementptr inbounds [2 x i16], ptr %4, i64 0, i64 1
  %14 = load i16, ptr %13, align 2, !tbaa !20
  %15 = zext i16 %14 to i32
  %16 = or i32 %12, %15
  %17 = icmp eq i32 %16, 536936448
  br i1 %17, label %18, label %19

18:                                               ; preds = %1
  store i32 0, ptr %2, align 4
  store i32 1, ptr %5, align 4
  br label %26

19:                                               ; preds = %1
  %20 = getelementptr inbounds [2 x i16], ptr %4, i64 0, i64 0
  %21 = load i16, ptr %20, align 2, !tbaa !20
  %22 = zext i16 %21 to i32
  %23 = icmp eq i32 %22, 8194
  br i1 %23, label %24, label %25

24:                                               ; preds = %19
  store i32 1, ptr %2, align 4
  store i32 1, ptr %5, align 4
  br label %26

25:                                               ; preds = %19
  store i32 2, ptr %2, align 4
  store i32 1, ptr %5, align 4
  br label %26

26:                                               ; preds = %25, %24, %18
  call void @llvm.lifetime.end.p0(i64 4, ptr %4) #13
  %27 = load i32, ptr %2, align 4
  ret i32 %27
}