; Function Attrs: mustprogress nofree norecurse nosync nounwind willreturn memory(argmem: read) uwtable
define noundef range(i32 0, 3) i32 @_ZNK5folly11IPAddressV64typeEv(ptr noundef nonnull readonly align 4 captures(none) dereferenceable(18) %0) local_unnamed_addr #29 align 2 {
  %2 = alloca [2 x i16], align 4
  call void @llvm.lifetime.start.p0(i64 4, ptr nonnull %2) #37
  store i32 0, ptr %2, align 4
  br label %3

3:                                                ; preds = %3, %1
  %.014.i = phi i64 [ 0, %1 ], [ %14, %3 ]
  %.01013.i = phi i64 [ 1, %1 ], [ %13, %3 ]
  %.01112.i = phi i64 [ 0, %1 ], [ %15, %3 ]
  %4 = getelementptr inbounds nuw i8, ptr %0, i64 %.01013.i
  %5 = load i8, ptr %4, align 1, !tbaa !9
  %6 = getelementptr inbounds nuw i8, ptr %0, i64 %.014.i
  %7 = load i8, ptr %6, align 2, !tbaa !9
  %8 = zext i8 %7 to i16
  %9 = shl nuw i16 %8, 8
  %10 = zext i8 %5 to i16
  %11 = or disjoint i16 %9, %10
  %12 = getelementptr inbounds nuw i16, ptr %2, i64 %.01112.i
  store i16 %11, ptr %12, align 2, !tbaa !62
  %13 = add nuw nsw i64 %.01013.i, 2
  %14 = add nuw nsw i64 %.014.i, 2
  %15 = add nuw nsw i64 %.01112.i, 1
  %exitcond.not.i = icmp eq i64 %15, 2
  br i1 %exitcond.not.i, label %_ZN5follyL10unpackIntoEPKhPtm.exit, label %3, !llvm.loop !221

_ZN5follyL10unpackIntoEPKhPtm.exit:               ; preds = %3
  %16 = load i16, ptr %2, align 4, !tbaa !62
  %17 = zext i16 %16 to i32
  %18 = shl nuw i32 %17, 16
  %19 = getelementptr inbounds nuw i8, ptr %2, i64 2
  %20 = load i16, ptr %19, align 2, !tbaa !62
  %21 = zext i16 %20 to i32
  %22 = or disjoint i32 %18, %21
  %23 = icmp eq i32 %22, 536936448
  %24 = icmp eq i16 %16, 8194
  %. = select i1 %24, i32 1, i32 2
  %.0 = select i1 %23, i32 0, i32 %.
  call void @llvm.lifetime.end.p0(i64 4, ptr nonnull %2) #37
  ret i32 %.0
}